target datalayout = "e-m:e-p270:32:32-p271:32:32-p272:64:64-i64:64-i128:128-f80:128-n8:16:32:64-S128"
target triple = "x86_64-pc-linux-gnu"

%struct.DdManager = type { %struct.DdNode, ptr, ptr, ptr, ptr, ptr, ptr, ptr, i32, i32, double, double, double, i32, i32, i32, i32, i32, i32, ptr, ptr, %struct.DdSubtable, i32, i32, i32, i32, i32, i32, i32, double, i32, i32, i32, ptr, i64, double, i32, ptr, ptr, ptr, ptr, ptr, ptr, ptr, i32, ptr, ptr, ptr, ptr, ptr, ptr, i32, i32, i32, double, i32, i32, i32, i32, double, double, i32, i32, i32, i32, i32, i32, i32, i32, i32, ptr, ptr, i32, i32, i32, i32, i32, i32, ptr, ptr, ptr, ptr, ptr, ptr, ptr, ptr, i32, i64, i64, i64, i32, i64, i64, double, double, double, double, double, double, i32, ptr, ptr, i64 }
%struct.DdNode = type { i32, i32, ptr, %union.anon.1, i64 }
%union.anon.1 = type { %struct.DdChildren }
%struct.DdChildren = type { ptr, ptr }
%struct.DdSubtable = type { ptr, i32, i32, i32, i32, i32, i32, i32, i32, i32, i32, i32 }

@.str.7 = private unnamed_addr constant [45 x i8] c"Inputs = %2d.  Nodes = %2d.  LutSize = %2d.\0A\00", align 1
@.str.8 = private unnamed_addr constant [17 x i8] c"[%2d %2d] : %3d\0A\00", align 1

; Function Attrs: nounwind uwtable
define void @Abc_NtkExploreCofs2(ptr noundef %0, ptr noundef %1, ptr noundef %2, i32 noundef %3, i32 noundef %4) #0 {
  %6 = alloca ptr, align 8
  %7 = alloca ptr, align 8
  %8 = alloca ptr, align 8
  %9 = alloca i32, align 4
  %10 = alloca i32, align 4
  %11 = alloca i32, align 4
  store ptr %0, ptr %6, align 8
  store ptr %1, ptr %7, align 8
  store ptr %2, ptr %8, align 8
  store i32 %3, ptr %9, align 4
  store i32 %4, ptr %10, align 4
  %12 = load i32, ptr %9, align 4
  %13 = load ptr, ptr %7, align 8
  %14 = call i32 @Cudd_DagSize(ptr noundef %13)
  %15 = load i32, ptr %10, align 4
  %16 = call i32 (ptr, ...) @printf(ptr noundef @.str.7, i32 noundef %12, i32 noundef %14, i32 noundef %15)
  store i32 0, ptr %11, align 4
  br label %17

17:                                               ; preds = %40, %5
  %18 = load i32, ptr %11, align 4
  %19 = load i32, ptr %9, align 4
  %20 = load i32, ptr %10, align 4
  %21 = sub nsw i32 %19, %20
  %22 = icmp sle i32 %18, %21
  br i1 %22, label %23, label %43

23:                                               ; preds = %17
  %24 = load i32, ptr %11, align 4
  %25 = load i32, ptr %11, align 4
  %26 = load i32, ptr %10, align 4
  %27 = add nsw i32 %25, %26
  %28 = sub nsw i32 %27, 1
  %29 = load ptr, ptr %6, align 8
  %30 = load ptr, ptr %7, align 8
  %31 = load ptr, ptr %6, align 8
  %32 = getelementptr inbounds %struct.DdManager, ptr %31, i32 0, i32 41
  %33 = load ptr, ptr %32, align 8
  %34 = load i32, ptr %11, align 4
  %35 = sext i32 %34 to i64
  %36 = getelementptr inbounds ptr, ptr %33, i64 %35
  %37 = load i32, ptr %10, align 4
  %38 = call i32 @Abc_NtkBddCofCount(ptr noundef %29, ptr noundef %30, ptr noundef %36, i32 noundef %37)
  %39 = call i32 (ptr, ...) @printf(ptr noundef @.str.8, i32 noundef %24, i32 noundef %28, i32 noundef %38)
  br label %40

40:                                               ; preds = %23
  %41 = load i32, ptr %11, align 4
  %42 = add nsw i32 %41, 1
  store i32 %42, ptr %11, align 4
  br label %17, !llvm.loop !43

43:                                               ; preds = %17
  ret void
}