; Function Attrs: nounwind uwtable
define void @Abc_NtkExploreCofs2(ptr noundef %0, ptr noundef %1, ptr noundef readnone captures(none) %2, i32 noundef %3, i32 noundef %4) local_unnamed_addr #0 {
  %6 = tail call i32 @Cudd_DagSize(ptr noundef %1) #18
  %7 = tail call i32 (ptr, ...) @printf(ptr noundef nonnull dereferenceable(1) @.str.7, i32 noundef %3, i32 noundef %6, i32 noundef %4)
  %.not14 = icmp slt i32 %3, %4
  br i1 %.not14, label %._crit_edge, label %.lr.ph

.lr.ph:                                           ; preds = %5
  %8 = add i32 %4, -1
  %9 = getelementptr inbounds nuw i8, ptr %0, i64 344
  %10 = add i32 %3, 1
  %11 = sub i32 %10, %4
  %wide.trip.count = zext i32 %11 to i64
  br label %12

12:                                               ; preds = %.lr.ph, %12
  %indvars.iv = phi i64 [ 0, %.lr.ph ], [ %indvars.iv.next, %12 ]
  %13 = trunc nuw nsw i64 %indvars.iv to i32
  %14 = add i32 %8, %13
  %15 = load ptr, ptr %9, align 8
  %16 = getelementptr inbounds nuw ptr, ptr %15, i64 %indvars.iv
  %17 = tail call i32 @Abc_NtkBddCofCount(ptr noundef %0, ptr noundef %1, ptr noundef %16, i32 noundef %4)
  %18 = tail call i32 (ptr, ...) @printf(ptr noundef nonnull dereferenceable(1) @.str.8, i32 noundef %13, i32 noundef %14, i32 noundef %17)
  %indvars.iv.next = add nuw nsw i64 %indvars.iv, 1
  %exitcond.not = icmp eq i64 %indvars.iv.next, %wide.trip.count
  br i1 %exitcond.not, label %._crit_edge, label %12, !llvm.loop !39

._crit_edge:                                      ; preds = %12, %5
  ret void
}